target datalayout = "e-m:e-p270:32:32-p271:32:32-p272:64:64-i64:64-i128:128-f80:128-n8:16:32:64-S128"
target triple = "x86_64-pc-linux-gnu"

%struct.darktable_t = type { %struct.dt_codepath_t, i32, i32, ptr, ptr, ptr, ptr, ptr, ptr, ptr, ptr, ptr, ptr, ptr, ptr, ptr, ptr, ptr, ptr, ptr, ptr, ptr, ptr, ptr, ptr, ptr, ptr, ptr, ptr, ptr, [64 x %struct.dt_pthread_mutex_t], %struct.dt_pthread_mutex_t, %struct.dt_pthread_mutex_t, %struct.dt_pthread_mutex_t, %struct.dt_pthread_mutex_t, %struct.dt_pthread_mutex_t, ptr, ptr, ptr, ptr, ptr, ptr, ptr, ptr, ptr, ptr, ptr, ptr, ptr, %struct.dt_lua_state_t, ptr, double, ptr, i32, [47 x i32], i32, i32, ptr, ptr, %struct.dt_sys_resources_t, %struct.dt_backthumb_t, %struct.dt_gimp_t }
%struct.dt_codepath_t = type { i8, [3 x i8] }
%struct.dt_pthread_mutex_t = type { %union.pthread_mutex_t }
%union.pthread_mutex_t = type { %struct.__pthread_mutex_s }
%struct.__pthread_mutex_s = type { i32, i32, i32, i32, i32, i16, i16, %struct.__pthread_internal_list }
%struct.__pthread_internal_list = type { ptr, ptr }
%struct.dt_lua_state_t = type { i32 }
%struct.dt_sys_resources_t = type { i64, i64, ptr, ptr, i32 }
%struct.dt_backthumb_t = type { double, double, i32, i32, i32, i32 }
%struct.dt_gimp_t = type { i32, ptr, ptr, i32, i32 }

@darktable = external global %struct.darktable_t, align 8
@.str = private unnamed_addr constant [41 x i8] c"[sql] %s:%d, function %s(): prepare \22%s\22\00", align 1
@.str.1 = private unnamed_addr constant [115 x i8] c"generated/home/dtcxzyw/WorkSpace/Projects/compilers/llvm-opt-benchmark/bench/darktable/darktable/src/common/tags.c\00", align 1
@stderr = external global ptr, align 8
@.str.3 = private unnamed_addr constant [53 x i8] c"sqlite3 error: %s:%d, function %s(), query \22%s\22: %s\0A\00", align 1
@.str.26 = private unnamed_addr constant [1 x i8] zeroinitializer, align 1
@.str.27 = private unnamed_addr constant [3 x i8] c"%d\00", align 1
@.str.75 = private unnamed_addr constant [113 x i8] c"SELECT DISTINCT T.id  FROM main.tagged_images AS I  JOIN data.tags T on T.id = I.tagid  WHERE I.imgid IN (%s) %s\00", align 1
@.str.76 = private unnamed_addr constant [34 x i8] c"AND T.id IN memory.darktable_tags\00", align 1
@.str.77 = private unnamed_addr constant [38 x i8] c"AND NOT T.id IN memory.darktable_tags\00", align 1
@__FUNCTION__._tag_get_tags = private unnamed_addr constant [14 x i8] c"_tag_get_tags\00", align 1

; Function Attrs: nounwind uwtable
define internal ptr @_tag_get_tags(i32 noundef %0, i32 noundef %1) #0 {
  %3 = alloca i32, align 4
  %4 = alloca i32, align 4
  %5 = alloca ptr, align 8
  %6 = alloca ptr, align 8
  %7 = alloca ptr, align 8
  %8 = alloca [256 x i8], align 16
  %9 = alloca i32, align 4
  store i32 %0, ptr %3, align 4, !tbaa !52
  store i32 %1, ptr %4, align 4, !tbaa !52
  call void @llvm.lifetime.start.p0(i64 8, ptr %5) #8
  store ptr null, ptr %5, align 8, !tbaa !59
  call void @llvm.lifetime.start.p0(i64 8, ptr %6) #8
  store ptr null, ptr %6, align 8, !tbaa !6
  %10 = load i32, ptr %3, align 4, !tbaa !52
  %11 = icmp sgt i32 %10, 0
  br i1 %11, label %12, label %15

12:                                               ; preds = %2
  %13 = load i32, ptr %3, align 4, !tbaa !52
  %14 = call noalias ptr (ptr, ...) @g_strdup_printf(ptr noundef @.str.27, i32 noundef %13)
  store ptr %14, ptr %6, align 8, !tbaa !6
  br label %18

15:                                               ; preds = %2
  %16 = load ptr, ptr getelementptr inbounds nuw (%struct.darktable_t, ptr @darktable, i32 0, i32 22), align 8, !tbaa !77
  %17 = call ptr @dt_selection_get_list_query(ptr noundef %16, i32 noundef 0, i32 noundef 0)
  store ptr %17, ptr %6, align 8, !tbaa !6
  br label %18

18:                                               ; preds = %15, %12
  call void @llvm.lifetime.start.p0(i64 8, ptr %7) #8
  call void @llvm.lifetime.start.p0(i64 256, ptr %8) #8
  call void @llvm.memset.p0.i64(ptr align 16 %8, i8 0, i64 256, i1 false)
  %19 = getelementptr inbounds [256 x i8], ptr %8, i64 0, i64 0
  %20 = load ptr, ptr %6, align 8, !tbaa !6
  %21 = load i32, ptr %4, align 4, !tbaa !52
  %22 = icmp eq i32 %21, 2
  br i1 %22, label %23, label %24

23:                                               ; preds = %18
  br label %28

24:                                               ; preds = %18
  %25 = load i32, ptr %4, align 4, !tbaa !52
  %26 = icmp eq i32 %25, 0
  %27 = select i1 %26, ptr @.str.76, ptr @.str.77
  br label %28

28:                                               ; preds = %24, %23
  %29 = phi ptr [ @.str.26, %23 ], [ %27, %24 ]
  %30 = call i32 (ptr, i64, ptr, ...) @snprintf(ptr noundef %19, i64 noundef 256, ptr noundef @.str.75, ptr noundef %20, ptr noundef %29) #8
  br label %31

31:                                               ; preds = %28
  br label %32

32:                                               ; preds = %31
  %33 = load i32, ptr getelementptr inbounds nuw (%struct.darktable_t, ptr @darktable, i32 0, i32 2), align 8, !tbaa !14
  %34 = and i32 256, %33
  %35 = icmp ne i32 %34, 0
  br i1 %35, label %36, label %43

36:                                               ; preds = %32
  %37 = load i32, ptr getelementptr inbounds nuw (%struct.darktable_t, ptr @darktable, i32 0, i32 2), align 8, !tbaa !14
  %38 = xor i32 %37, -1
  %39 = and i32 0, %38
  %40 = icmp ne i32 %39, 0
  br i1 %40, label %43, label %41

41:                                               ; preds = %36
  %42 = getelementptr inbounds [256 x i8], ptr %8, i64 0, i64 0
  call void (ptr, ...) @dt_print_ext(ptr noundef @.str, ptr noundef @.str.1, i32 noundef 986, ptr noundef @__FUNCTION__._tag_get_tags, ptr noundef %42)
  br label %43

43:                                               ; preds = %41, %36, %32
  br label %44

44:                                               ; preds = %43
  br label %45

45:                                               ; preds = %44
  call void @llvm.lifetime.start.p0(i64 4, ptr %9) #8
  %46 = load ptr, ptr getelementptr inbounds nuw (%struct.darktable_t, ptr @darktable, i32 0, i32 18), align 8, !tbaa !51
  %47 = call ptr @dt_database_get(ptr noundef %46)
  %48 = getelementptr inbounds [256 x i8], ptr %8, i64 0, i64 0
  %49 = call i32 @sqlite3_prepare_v2(ptr noundef %47, ptr noundef %48, i32 noundef -1, ptr noundef %7, ptr noundef null)
  store i32 %49, ptr %9, align 4, !tbaa !52
  %50 = load i32, ptr %9, align 4, !tbaa !52
  %51 = icmp ne i32 %50, 0
  br i1 %51, label %52, label %59

52:                                               ; preds = %45
  %53 = load ptr, ptr @stderr, align 8, !tbaa !53
  %54 = getelementptr inbounds [256 x i8], ptr %8, i64 0, i64 0
  %55 = load ptr, ptr getelementptr inbounds nuw (%struct.darktable_t, ptr @darktable, i32 0, i32 18), align 8, !tbaa !51
  %56 = call ptr @dt_database_get(ptr noundef %55)
  %57 = call ptr @sqlite3_errmsg(ptr noundef %56)
  %58 = call i32 (ptr, ptr, ...) @fprintf(ptr noundef %53, ptr noundef @.str.3, ptr noundef @.str.1, i32 noundef 986, ptr noundef @__FUNCTION__._tag_get_tags, ptr noundef %54, ptr noundef %57) #8
  br label %59

59:                                               ; preds = %52, %45
  call void @llvm.lifetime.end.p0(i64 4, ptr %9) #8
  br label %60

60:                                               ; preds = %59
  br label %61

61:                                               ; preds = %60
  br label %62

62:                                               ; preds = %66, %61
  %63 = load ptr, ptr %7, align 8, !tbaa !55
  %64 = call i32 @sqlite3_step(ptr noundef %63)
  %65 = icmp eq i32 %64, 100
  br i1 %65, label %66, label %73

66:                                               ; preds = %62
  %67 = load ptr, ptr %5, align 8, !tbaa !59
  %68 = load ptr, ptr %7, align 8, !tbaa !55
  %69 = call i32 @sqlite3_column_int(ptr noundef %68, i32 noundef 0)
  %70 = sext i32 %69 to i64
  %71 = inttoptr i64 %70 to ptr
  %72 = call ptr @g_list_prepend(ptr noundef %67, ptr noundef %71)
  store ptr %72, ptr %5, align 8, !tbaa !59
  br label %62

73:                                               ; preds = %62
  %74 = load ptr, ptr %7, align 8, !tbaa !55
  %75 = call i32 @sqlite3_finalize(ptr noundef %74)
  %76 = load ptr, ptr %6, align 8, !tbaa !6
  call void @g_free(ptr noundef %76)
  %77 = load ptr, ptr %5, align 8, !tbaa !59
  call void @llvm.lifetime.end.p0(i64 256, ptr %8) #8
  call void @llvm.lifetime.end.p0(i64 8, ptr %7) #8
  call void @llvm.lifetime.end.p0(i64 8, ptr %6) #8
  call void @llvm.lifetime.end.p0(i64 8, ptr %5) #8
  ret ptr %77
}