; Function Attrs: nounwind uwtable
define internal fastcc ptr @_tag_get_tags(i32 noundef %0, i32 noundef range(i32 0, 3) %1) unnamed_addr #0 {
  %3 = alloca ptr, align 8
  %4 = alloca [256 x i8], align 16
  %5 = icmp sgt i32 %0, 0
  br i1 %5, label %6, label %8

6:                                                ; preds = %2
  %7 = tail call noalias ptr (ptr, ...) @g_strdup_printf(ptr noundef nonnull @.str.27, i32 noundef %0) #11
  br label %11

8:                                                ; preds = %2
  %9 = load ptr, ptr getelementptr inbounds nuw (i8, ptr @darktable, i64 168), align 8, !tbaa !69
  %10 = tail call ptr @dt_selection_get_list_query(ptr noundef %9, i32 noundef 0, i32 noundef 0) #11
  br label %11

11:                                               ; preds = %8, %6
  %.08 = phi ptr [ %7, %6 ], [ %10, %8 ]
  call void @llvm.lifetime.start.p0(i64 8, ptr nonnull %3) #11
  call void @llvm.lifetime.start.p0(i64 256, ptr nonnull %4) #11
  call void @llvm.memset.p0.i64(ptr noundef nonnull align 16 dereferenceable(256) %4, i8 0, i64 256, i1 false)
  %12 = icmp eq i32 %1, 2
  %13 = icmp eq i32 %1, 0
  %14 = select i1 %13, ptr @.str.76, ptr @.str.77
  %15 = select i1 %12, ptr @.str.26, ptr %14
  %16 = call i32 (ptr, i64, ptr, ...) @snprintf(ptr noundef nonnull dereferenceable(1) %4, i64 noundef 256, ptr noundef nonnull @.str.75, ptr noundef %.08, ptr noundef nonnull %15) #11
  %17 = load i32, ptr getelementptr inbounds nuw (i8, ptr @darktable, i64 8), align 8, !tbaa !9
  %18 = and i32 %17, 256
  %.not = icmp eq i32 %18, 0
  br i1 %.not, label %20, label %19

19:                                               ; preds = %11
  call void (ptr, ...) @dt_print_ext(ptr noundef nonnull @.str, ptr noundef nonnull @.str.1, i32 noundef 986, ptr noundef nonnull @__FUNCTION__._tag_get_tags, ptr noundef nonnull %4) #11
  br label %20

20:                                               ; preds = %19, %11
  %21 = load ptr, ptr getelementptr inbounds nuw (i8, ptr @darktable, i64 136), align 8, !tbaa !49
  %22 = call ptr @dt_database_get(ptr noundef %21) #11
  %23 = call i32 @sqlite3_prepare_v2(ptr noundef %22, ptr noundef nonnull %4, i32 noundef -1, ptr noundef nonnull %3, ptr noundef null) #11
  %.not10 = icmp eq i32 %23, 0
  br i1 %.not10, label %30, label %24

24:                                               ; preds = %20
  %25 = load ptr, ptr @stderr, align 8, !tbaa !50
  %26 = load ptr, ptr getelementptr inbounds nuw (i8, ptr @darktable, i64 136), align 8, !tbaa !49
  %27 = call ptr @dt_database_get(ptr noundef %26) #11
  %28 = call ptr @sqlite3_errmsg(ptr noundef %27) #11
  %29 = call i32 (ptr, ptr, ...) @fprintf(ptr noundef %25, ptr noundef nonnull @.str.3, ptr noundef nonnull @.str.1, i32 noundef 986, ptr noundef nonnull @__FUNCTION__._tag_get_tags, ptr noundef nonnull %4, ptr noundef %28) #12
  br label %30

30:                                               ; preds = %24, %20
  %31 = load ptr, ptr %3, align 8, !tbaa !52
  %32 = call i32 @sqlite3_step(ptr noundef %31) #11
  %33 = icmp eq i32 %32, 100
  br i1 %33, label %.lr.ph, label %._crit_edge

.lr.ph:                                           ; preds = %30, %.lr.ph
  %.011 = phi ptr [ %38, %.lr.ph ], [ null, %30 ]
  %34 = load ptr, ptr %3, align 8, !tbaa !52
  %35 = call i32 @sqlite3_column_int(ptr noundef %34, i32 noundef 0) #11
  %36 = sext i32 %35 to i64
  %37 = inttoptr i64 %36 to ptr
  %38 = call ptr @g_list_prepend(ptr noundef %.011, ptr noundef %37) #11
  %39 = load ptr, ptr %3, align 8, !tbaa !52
  %40 = call i32 @sqlite3_step(ptr noundef %39) #11
  %41 = icmp eq i32 %40, 100
  br i1 %41, label %.lr.ph, label %._crit_edge

._crit_edge:                                      ; preds = %.lr.ph, %30
  %.0.lcssa = phi ptr [ null, %30 ], [ %38, %.lr.ph ]
  %42 = load ptr, ptr %3, align 8, !tbaa !52
  %43 = call i32 @sqlite3_finalize(ptr noundef %42) #11
  call void @g_free(ptr noundef %.08) #11
  call void @llvm.lifetime.end.p0(i64 256, ptr nonnull %4) #11
  call void @llvm.lifetime.end.p0(i64 8, ptr nonnull %3) #11
  ret ptr %.0.lcssa
}